target datalayout = "e-m:e-p270:32:32-p271:32:32-p272:64:64-i64:64-i128:128-f80:128-n8:16:32:64-S128"
target triple = "x86_64-pc-linux-gnu"

%"class.glslang::TQualifier" = type <{ ptr, i64, i8, [3 x i8], i32, i32, i64, i64, i8, i8, i8, i8, i8, [3 x i8], i32, i8, i8, i8, i8, i32, ptr, i8, i8, [6 x i8] }>

@.str.5 = private unnamed_addr constant [1 x i8] zeroinitializer, align 1
@.str.206 = private unnamed_addr constant [29 x i8] c"constant expression required\00", align 1

; Function Attrs: mustprogress nounwind uwtable
define void @_ZN7glslang16HlslParseContext18constantValueCheckEPNS_12TIntermTypedEPKc(ptr noundef nonnull align 8 dereferenceable(2489) %0, ptr noundef %1, ptr noundef %2) #0 align 2 {
  %4 = alloca ptr, align 8
  %5 = alloca ptr, align 8
  %6 = alloca ptr, align 8
  store ptr %0, ptr %4, align 8
  store ptr %1, ptr %5, align 8
  store ptr %2, ptr %6, align 8
  %7 = load ptr, ptr %4, align 8
  %8 = load ptr, ptr %5, align 8
  %9 = load ptr, ptr %8, align 8
  %10 = getelementptr inbounds ptr, ptr %9, i64 33
  %11 = load ptr, ptr %10, align 8
  %12 = call noundef nonnull align 8 dereferenceable(80) ptr %11(ptr noundef nonnull align 8 dereferenceable(184) %8)
  %13 = getelementptr inbounds %"class.glslang::TQualifier", ptr %12, i32 0, i32 1
  %14 = load i64, ptr %13, align 8
  %15 = and i64 %14, 127
  %16 = trunc i64 %15 to i32
  %17 = icmp ne i32 %16, 2
  br i1 %17, label %18, label %28

18:                                               ; preds = %3
  %19 = load ptr, ptr %5, align 8
  %20 = load ptr, ptr %19, align 8
  %21 = getelementptr inbounds ptr, ptr %20, i64 0
  %22 = load ptr, ptr %21, align 8
  %23 = call noundef nonnull align 8 dereferenceable(24) ptr %22(ptr noundef nonnull align 8 dereferenceable(32) %19)
  %24 = load ptr, ptr %6, align 8
  %25 = load ptr, ptr %7, align 8
  %26 = getelementptr inbounds ptr, ptr %25, i64 43
  %27 = load ptr, ptr %26, align 8
  call void (ptr, ptr, ptr, ptr, ptr, ...) %27(ptr noundef nonnull align 8 dereferenceable(1280) %7, ptr noundef nonnull align 8 dereferenceable(24) %23, ptr noundef @.str.206, ptr noundef %24, ptr noundef @.str.5)
  br label %28

28:                                               ; preds = %18, %3
  ret void
}