; Function Attrs: mustprogress nounwind uwtable
define void @_ZN7glslang16HlslParseContext18constantValueCheckEPNS_12TIntermTypedEPKc(ptr noundef nonnull align 8 dereferenceable(2489) %0, ptr noundef %1, ptr noundef %2) local_unnamed_addr #0 align 2 {
  %4 = load ptr, ptr %1, align 8
  %5 = getelementptr inbounds i8, ptr %4, i64 264
  %6 = load ptr, ptr %5, align 8
  %7 = tail call noundef nonnull align 8 dereferenceable(80) ptr %6(ptr noundef nonnull align 8 dereferenceable(184) %1) #24
  %8 = getelementptr inbounds i8, ptr %7, i64 8
  %9 = load i64, ptr %8, align 8
  %10 = and i64 %9, 127
  %.not = icmp eq i64 %10, 2
  br i1 %.not, label %18, label %11

11:                                               ; preds = %3
  %12 = load ptr, ptr %1, align 8
  %13 = load ptr, ptr %12, align 8
  %14 = tail call noundef nonnull align 8 dereferenceable(24) ptr %13(ptr noundef nonnull align 8 dereferenceable(32) %1) #24
  %15 = load ptr, ptr %0, align 8
  %16 = getelementptr inbounds i8, ptr %15, i64 344
  %17 = load ptr, ptr %16, align 8
  tail call void (ptr, ptr, ptr, ptr, ptr, ...) %17(ptr noundef nonnull align 8 dereferenceable(1280) %0, ptr noundef nonnull align 8 dereferenceable(24) %14, ptr noundef nonnull @.str.206, ptr noundef %2, ptr noundef nonnull @.str.5) #24
  br label %18

18:                                               ; preds = %11, %3
  ret void
}